; Function Attrs: mustprogress uwtable
define hidden noundef ptr @_ZN4lean2ir16run_boxed_kernelERKNS_11environmentERKNS_7optionsERKNS_4nameEjPP11lean_object(ptr noundef nonnull readonly align 8 captures(none) dereferenceable(8) %0, ptr noundef nonnull align 8 dereferenceable(8) %1, ptr noundef nonnull align 8 dereferenceable(8) %2, i32 noundef %3, ptr noundef %4) local_unnamed_addr #0 personality ptr @__gxx_personality_v0 {
  %6 = alloca %"class.lean::elab_environment", align 8
  call void @llvm.lifetime.start.p0(i64 8, ptr nonnull %6) #24
  tail call void @llvm.experimental.noalias.scope.decl(metadata !84)
  %7 = load ptr, ptr %0, align 8, !tbaa !6, !noalias !84
  %8 = ptrtoint ptr %7 to i64
  %9 = and i64 %8, 1
  %.not.i.i.i = icmp eq i64 %9, 0
  br i1 %.not.i.i.i, label %10, label %_ZN4lean2ir30elab_environment_of_kernel_envERKNS_11environmentE.exit

10:                                               ; preds = %5
  %.val.i.i.i.i = load i32, ptr %7, align 4, !tbaa !12, !noalias !84
  %11 = icmp sgt i32 %.val.i.i.i.i, 0
  br i1 %11, label %12, label %14, !prof !15

12:                                               ; preds = %10
  %13 = add nuw nsw i32 %.val.i.i.i.i, 1
  store i32 %13, ptr %7, align 4, !tbaa !12, !noalias !84
  br label %_ZN4lean2ir30elab_environment_of_kernel_envERKNS_11environmentE.exit

14:                                               ; preds = %10
  %.not.i.i.i.i = icmp eq i32 %.val.i.i.i.i, 0
  br i1 %.not.i.i.i.i, label %_ZN4lean2ir30elab_environment_of_kernel_envERKNS_11environmentE.exit, label %15

15:                                               ; preds = %14
  tail call void @lean_inc_ref_cold(ptr noundef nonnull %7), !noalias !84
  %.pre.i.i = load ptr, ptr %0, align 8, !tbaa !6, !noalias !84
  br label %_ZN4lean2ir30elab_environment_of_kernel_envERKNS_11environmentE.exit

_ZN4lean2ir30elab_environment_of_kernel_envERKNS_11environmentE.exit: ; preds = %5, %12, %14, %15
  %16 = phi ptr [ %7, %5 ], [ %7, %12 ], [ %7, %14 ], [ %.pre.i.i, %15 ]
  %17 = tail call ptr @lean_elab_environment_of_kernel_env(ptr noundef %16), !noalias !84
  store ptr %17, ptr %6, align 8, !tbaa !6, !alias.scope !84
  %18 = invoke noundef ptr @_ZN4lean2ir9run_boxedERKNS_16elab_environmentERKNS_7optionsERKNS_4nameEjPP11lean_object(ptr noundef nonnull align 8 dereferenceable(8) %6, ptr noundef nonnull align 8 dereferenceable(8) %1, ptr noundef nonnull align 8 dereferenceable(8) %2, i32 noundef %3, ptr noundef %4)
          to label %19 unwind label %33

19:                                               ; preds = %_ZN4lean2ir30elab_environment_of_kernel_envERKNS_11environmentE.exit
  %20 = load ptr, ptr %6, align 8, !tbaa !6
  %21 = ptrtoint ptr %20 to i64
  %22 = and i64 %21, 1
  %.not.i.i = icmp eq i64 %22, 0
  br i1 %.not.i.i, label %23, label %_ZN4lean10object_refD2Ev.exit

23:                                               ; preds = %19
  %24 = load i32, ptr %20, align 4, !tbaa !12
  %25 = icmp sgt i32 %24, 1
  br i1 %25, label %26, label %28, !prof !15

26:                                               ; preds = %23
  %27 = add nsw i32 %24, -1
  store i32 %27, ptr %20, align 4, !tbaa !12
  br label %_ZN4lean10object_refD2Ev.exit

28:                                               ; preds = %23
  %.not.i.i.i6 = icmp eq i32 %24, 0
  br i1 %.not.i.i.i6, label %_ZN4lean10object_refD2Ev.exit, label %29

29:                                               ; preds = %28
  invoke void @lean_dec_ref_cold(ptr noundef nonnull %20)
          to label %_ZN4lean10object_refD2Ev.exit unwind label %30

30:                                               ; preds = %29
  %31 = landingpad { ptr, i32 }
          catch ptr null
  %32 = extractvalue { ptr, i32 } %31, 0
  call void @__clang_call_terminate(ptr %32) #26
  unreachable

_ZN4lean10object_refD2Ev.exit:                    ; preds = %19, %26, %28, %29
  call void @llvm.lifetime.end.p0(i64 8, ptr nonnull %6) #24
  ret ptr %18

33:                                               ; preds = %_ZN4lean2ir30elab_environment_of_kernel_envERKNS_11environmentE.exit
  %34 = landingpad { ptr, i32 }
          cleanup
  call void @_ZN4lean10object_refD2Ev(ptr noundef nonnull align 8 dereferenceable(8) %6) #24
  call void @llvm.lifetime.end.p0(i64 8, ptr nonnull %6) #24
  resume { ptr, i32 } %34
}